target datalayout = "e-m:e-p270:32:32-p271:32:32-p272:64:64-i64:64-i128:128-f80:128-n8:16:32:64-S128"
target triple = "x86_64-pc-linux-gnu"

%struct.ident_t = type { i32, i32, i32, i32, ptr }
%"struct.faiss::BitstringReader" = type { ptr, i64, i64 }

@1 = private unnamed_addr constant %struct.ident_t { i32 0, i32 514, i32 0, i32 22, ptr @0 }, align 8

; Function Attrs: noinline noreturn nounwind uwtable
define linkonce_odr hidden void @__clang_call_terminate(ptr noundef %0) #9 comdat {
  %2 = call ptr @__cxa_begin_catch(ptr %0) #7
  call void @_ZSt9terminatev() #20
  unreachable
}

; Function Attrs: inlinehint mustprogress nounwind uwtable
define linkonce_odr noundef i64 @_ZN5faiss15BitstringReader4readEi(ptr noundef nonnull align 8 dereferenceable(24) %0, i32 noundef %1) #3 comdat align 2 {
  %3 = alloca i64, align 8
  %4 = alloca ptr, align 8
  %5 = alloca i32, align 4
  %6 = alloca i32, align 4
  %7 = alloca i64, align 8
  %8 = alloca i32, align 4
  %9 = alloca i32, align 4
  %10 = alloca i64, align 8
  %11 = alloca i64, align 8
  store ptr %0, ptr %4, align 8, !tbaa !933
  store i32 %1, ptr %5, align 4, !tbaa !13
  %12 = load ptr, ptr %4, align 8
  call void @llvm.lifetime.start.p0(i64 4, ptr %6) #7
  %13 = getelementptr inbounds nuw %"struct.faiss::BitstringReader", ptr %12, i32 0, i32 2
  %14 = load i64, ptr %13, align 8, !tbaa !938
  %15 = and i64 %14, 7
  %16 = sub i64 8, %15
  %17 = trunc i64 %16 to i32
  store i32 %17, ptr %6, align 4, !tbaa !13
  call void @llvm.lifetime.start.p0(i64 8, ptr %7) #7
  %18 = getelementptr inbounds nuw %"struct.faiss::BitstringReader", ptr %12, i32 0, i32 0
  %19 = load ptr, ptr %18, align 8, !tbaa !935
  %20 = getelementptr inbounds nuw %"struct.faiss::BitstringReader", ptr %12, i32 0, i32 2
  %21 = load i64, ptr %20, align 8, !tbaa !938
  %22 = lshr i64 %21, 3
  %23 = getelementptr inbounds nuw i8, ptr %19, i64 %22
  %24 = load i8, ptr %23, align 1, !tbaa !23
  %25 = zext i8 %24 to i32
  %26 = getelementptr inbounds nuw %"struct.faiss::BitstringReader", ptr %12, i32 0, i32 2
  %27 = load i64, ptr %26, align 8, !tbaa !938
  %28 = and i64 %27, 7
  %29 = trunc i64 %28 to i32
  %30 = ashr i32 %25, %29
  %31 = sext i32 %30 to i64
  store i64 %31, ptr %7, align 8, !tbaa !9
  %32 = load i32, ptr %5, align 4, !tbaa !13
  %33 = load i32, ptr %6, align 4, !tbaa !13
  %34 = icmp sle i32 %32, %33
  br i1 %34, label %35, label %48

35:                                               ; preds = %2
  %36 = load i32, ptr %5, align 4, !tbaa !13
  %37 = shl i32 1, %36
  %38 = sub nsw i32 %37, 1
  %39 = sext i32 %38 to i64
  %40 = load i64, ptr %7, align 8, !tbaa !9
  %41 = and i64 %40, %39
  store i64 %41, ptr %7, align 8, !tbaa !9
  %42 = load i32, ptr %5, align 4, !tbaa !13
  %43 = sext i32 %42 to i64
  %44 = getelementptr inbounds nuw %"struct.faiss::BitstringReader", ptr %12, i32 0, i32 2
  %45 = load i64, ptr %44, align 8, !tbaa !938
  %46 = add i64 %45, %43
  store i64 %46, ptr %44, align 8, !tbaa !938
  %47 = load i64, ptr %7, align 8, !tbaa !9
  store i64 %47, ptr %3, align 8
  store i32 1, ptr %8, align 4
  br label %102

48:                                               ; preds = %2
  call void @llvm.lifetime.start.p0(i64 4, ptr %9) #7
  %49 = load i32, ptr %6, align 4, !tbaa !13
  store i32 %49, ptr %9, align 4, !tbaa !13
  call void @llvm.lifetime.start.p0(i64 8, ptr %10) #7
  %50 = getelementptr inbounds nuw %"struct.faiss::BitstringReader", ptr %12, i32 0, i32 2
  %51 = load i64, ptr %50, align 8, !tbaa !938
  %52 = lshr i64 %51, 3
  %53 = add i64 %52, 1
  store i64 %53, ptr %10, align 8, !tbaa !9
  %54 = load i32, ptr %5, align 4, !tbaa !13
  %55 = sext i32 %54 to i64
  %56 = getelementptr inbounds nuw %"struct.faiss::BitstringReader", ptr %12, i32 0, i32 2
  %57 = load i64, ptr %56, align 8, !tbaa !938
  %58 = add i64 %57, %55
  store i64 %58, ptr %56, align 8, !tbaa !938
  %59 = load i32, ptr %6, align 4, !tbaa !13
  %60 = load i32, ptr %5, align 4, !tbaa !13
  %61 = sub nsw i32 %60, %59
  store i32 %61, ptr %5, align 4, !tbaa !13
  br label %62

62:                                               ; preds = %65, %48
  %63 = load i32, ptr %5, align 4, !tbaa !13
  %64 = icmp sgt i32 %63, 8
  br i1 %64, label %65, label %82

65:                                               ; preds = %62
  %66 = getelementptr inbounds nuw %"struct.faiss::BitstringReader", ptr %12, i32 0, i32 0
  %67 = load ptr, ptr %66, align 8, !tbaa !935
  %68 = load i64, ptr %10, align 8, !tbaa !9
  %69 = add i64 %68, 1
  store i64 %69, ptr %10, align 8, !tbaa !9
  %70 = getelementptr inbounds nuw i8, ptr %67, i64 %68
  %71 = load i8, ptr %70, align 1, !tbaa !23
  %72 = zext i8 %71 to i64
  %73 = load i32, ptr %9, align 4, !tbaa !13
  %74 = zext i32 %73 to i64
  %75 = shl i64 %72, %74
  %76 = load i64, ptr %7, align 8, !tbaa !9
  %77 = or i64 %76, %75
  store i64 %77, ptr %7, align 8, !tbaa !9
  %78 = load i32, ptr %9, align 4, !tbaa !13
  %79 = add nsw i32 %78, 8
  store i32 %79, ptr %9, align 4, !tbaa !13
  %80 = load i32, ptr %5, align 4, !tbaa !13
  %81 = sub nsw i32 %80, 8
  store i32 %81, ptr %5, align 4, !tbaa !13
  br label %62, !llvm.loop !939

82:                                               ; preds = %62
  call void @llvm.lifetime.start.p0(i64 8, ptr %11) #7
  %83 = getelementptr inbounds nuw %"struct.faiss::BitstringReader", ptr %12, i32 0, i32 0
  %84 = load ptr, ptr %83, align 8, !tbaa !935
  %85 = load i64, ptr %10, align 8, !tbaa !9
  %86 = getelementptr inbounds nuw i8, ptr %84, i64 %85
  %87 = load i8, ptr %86, align 1, !tbaa !23
  %88 = zext i8 %87 to i64
  store i64 %88, ptr %11, align 8, !tbaa !9
  %89 = load i32, ptr %5, align 4, !tbaa !13
  %90 = shl i32 1, %89
  %91 = sub nsw i32 %90, 1
  %92 = sext i32 %91 to i64
  %93 = load i64, ptr %11, align 8, !tbaa !9
  %94 = and i64 %93, %92
  store i64 %94, ptr %11, align 8, !tbaa !9
  %95 = load i64, ptr %11, align 8, !tbaa !9
  %96 = load i32, ptr %9, align 4, !tbaa !13
  %97 = zext i32 %96 to i64
  %98 = shl i64 %95, %97
  %99 = load i64, ptr %7, align 8, !tbaa !9
  %100 = or i64 %99, %98
  store i64 %100, ptr %7, align 8, !tbaa !9
  %101 = load i64, ptr %7, align 8, !tbaa !9
  store i64 %101, ptr %3, align 8
  store i32 1, ptr %8, align 4
  call void @llvm.lifetime.end.p0(i64 8, ptr %11) #7
  call void @llvm.lifetime.end.p0(i64 8, ptr %10) #7
  call void @llvm.lifetime.end.p0(i64 4, ptr %9) #7
  br label %102

102:                                              ; preds = %82, %35
  call void @llvm.lifetime.end.p0(i64 8, ptr %7) #7
  call void @llvm.lifetime.end.p0(i64 4, ptr %6) #7
  %103 = load i64, ptr %3, align 8
  ret i64 %103
}

; Function Attrs: inlinehint mustprogress nounwind uwtable
define linkonce_odr void @_ZN5faiss15BitstringReaderC2EPKhm(ptr noundef nonnull align 8 dereferenceable(24) %0, ptr noundef %1, i64 noundef %2) unnamed_addr #3 comdat align 2 {
  %4 = alloca ptr, align 8
  %5 = alloca ptr, align 8
  %6 = alloca i64, align 8
  store ptr %0, ptr %4, align 8, !tbaa !933
  store ptr %1, ptr %5, align 8, !tbaa !21
  store i64 %2, ptr %6, align 8, !tbaa !9
  %7 = load ptr, ptr %4, align 8
  %8 = getelementptr inbounds nuw %"struct.faiss::BitstringReader", ptr %7, i32 0, i32 0
  %9 = load ptr, ptr %5, align 8, !tbaa !21
  store ptr %9, ptr %8, align 8, !tbaa !935
  %10 = getelementptr inbounds nuw %"struct.faiss::BitstringReader", ptr %7, i32 0, i32 1
  %11 = load i64, ptr %6, align 8, !tbaa !9
  store i64 %11, ptr %10, align 8, !tbaa !937
  %12 = getelementptr inbounds nuw %"struct.faiss::BitstringReader", ptr %7, i32 0, i32 2
  store i64 0, ptr %12, align 8, !tbaa !938
  ret void
}

; Function Attrs: noinline norecurse nounwind uwtable
define internal void @_ZN5faiss17unpack_bitstringsEmmPKiPKhmPi.omp_outlined(ptr noalias noundef %0, ptr noalias noundef %1, ptr noundef nonnull align 8 dereferenceable(8) %2, ptr noundef nonnull align 8 dereferenceable(8) %3, ptr noundef nonnull align 8 dereferenceable(8) %4, ptr noundef nonnull align 8 dereferenceable(8) %5, ptr noundef nonnull align 8 dereferenceable(8) %6, ptr noundef nonnull align 8 dereferenceable(8) %7) #6 personality ptr @__gxx_personality_v0 {
  %9 = alloca ptr, align 8
  %10 = alloca ptr, align 8
  %11 = alloca ptr, align 8
  %12 = alloca ptr, align 8
  %13 = alloca ptr, align 8
  %14 = alloca ptr, align 8
  %15 = alloca ptr, align 8
  %16 = alloca ptr, align 8
  %17 = alloca i64, align 8
  %18 = alloca i64, align 8
  %19 = alloca i64, align 8
  %20 = alloca i64, align 8
  %21 = alloca i64, align 8
  %22 = alloca i64, align 8
  %23 = alloca i64, align 8
  %24 = alloca i32, align 4
  %25 = alloca i64, align 8
  %26 = alloca ptr, align 8
  %27 = alloca ptr, align 8
  %28 = alloca %"struct.faiss::BitstringReader", align 8
  %29 = alloca i32, align 4
  store ptr %0, ptr %9, align 8, !tbaa !11
  store ptr %1, ptr %10, align 8, !tbaa !11
  store ptr %2, ptr %11, align 8, !tbaa !4
  store ptr %3, ptr %12, align 8, !tbaa !30
  store ptr %4, ptr %13, align 8, !tbaa !4
  store ptr %5, ptr %14, align 8, !tbaa !47
  store ptr %6, ptr %15, align 8, !tbaa !4
  store ptr %7, ptr %16, align 8, !tbaa !47
  %30 = load ptr, ptr %11, align 8, !tbaa !4
  %31 = load ptr, ptr %12, align 8, !tbaa !30
  %32 = load ptr, ptr %13, align 8, !tbaa !4
  %33 = load ptr, ptr %14, align 8, !tbaa !47
  %34 = load ptr, ptr %15, align 8, !tbaa !4
  %35 = load ptr, ptr %16, align 8, !tbaa !47
  call void @llvm.lifetime.start.p0(i64 8, ptr %17) #7
  call void @llvm.lifetime.start.p0(i64 8, ptr %18) #7
  %36 = load i64, ptr %30, align 8, !tbaa !9
  store i64 %36, ptr %18, align 8, !tbaa !9
  call void @llvm.lifetime.start.p0(i64 8, ptr %19) #7
  %37 = load i64, ptr %18, align 8, !tbaa !9
  %38 = sub i64 %37, 0
  %39 = udiv i64 %38, 1
  %40 = sub i64 %39, 1
  store i64 %40, ptr %19, align 8, !tbaa !9
  call void @llvm.lifetime.start.p0(i64 8, ptr %20) #7
  store i64 0, ptr %20, align 8, !tbaa !9
  call void @llvm.lifetime.end.p0(i64 8, ptr %20) #7
  %41 = load i64, ptr %18, align 8, !tbaa !9
  %42 = icmp ult i64 0, %41
  br i1 %42, label %43, label %110

43:                                               ; preds = %8
  call void @llvm.lifetime.start.p0(i64 8, ptr %21) #7
  store i64 0, ptr %21, align 8, !tbaa !9
  call void @llvm.lifetime.start.p0(i64 8, ptr %22) #7
  %44 = load i64, ptr %19, align 8, !tbaa !9
  store i64 %44, ptr %22, align 8, !tbaa !9
  call void @llvm.lifetime.start.p0(i64 8, ptr %23) #7
  store i64 1, ptr %23, align 8, !tbaa !9
  call void @llvm.lifetime.start.p0(i64 4, ptr %24) #7
  store i32 0, ptr %24, align 4, !tbaa !13
  call void @llvm.lifetime.start.p0(i64 8, ptr %25) #7
  %45 = load ptr, ptr %9, align 8
  %46 = load i32, ptr %45, align 4, !tbaa !13
  call void @__kmpc_for_static_init_8u(ptr @1, i32 %46, i32 34, ptr %24, ptr %21, ptr %22, ptr %23, i64 1, i64 1)
  %47 = load i64, ptr %22, align 8, !tbaa !9
  %48 = load i64, ptr %19, align 8, !tbaa !9
  %49 = icmp ugt i64 %47, %48
  br i1 %49, label %50, label %52

50:                                               ; preds = %43
  %51 = load i64, ptr %19, align 8, !tbaa !9
  br label %54

52:                                               ; preds = %43
  %53 = load i64, ptr %22, align 8, !tbaa !9
  br label %54

54:                                               ; preds = %52, %50
  %55 = phi i64 [ %51, %50 ], [ %53, %52 ]
  store i64 %55, ptr %22, align 8, !tbaa !9
  %56 = load i64, ptr %21, align 8, !tbaa !9
  store i64 %56, ptr %17, align 8, !tbaa !9
  br label %57

57:                                               ; preds = %103, %54
  %58 = load i64, ptr %17, align 8, !tbaa !9
  %59 = load i64, ptr %22, align 8, !tbaa !9
  %60 = add i64 %59, 1
  %61 = icmp ult i64 %58, %60
  br i1 %61, label %63, label %62

62:                                               ; preds = %57
  br label %106

63:                                               ; preds = %57
  %64 = load i64, ptr %17, align 8, !tbaa !9
  %65 = mul i64 %64, 1
  %66 = add i64 0, %65
  store i64 %66, ptr %25, align 8, !tbaa !9
  call void @llvm.lifetime.start.p0(i64 8, ptr %26) #7
  %67 = load ptr, ptr %31, align 8, !tbaa !21
  %68 = load i64, ptr %25, align 8, !tbaa !9
  %69 = load i64, ptr %32, align 8, !tbaa !9
  %70 = mul i64 %68, %69
  %71 = getelementptr inbounds nuw i8, ptr %67, i64 %70
  store ptr %71, ptr %26, align 8, !tbaa !21
  call void @llvm.lifetime.start.p0(i64 8, ptr %27) #7
  %72 = load ptr, ptr %33, align 8, !tbaa !11
  %73 = load i64, ptr %25, align 8, !tbaa !9
  %74 = load i64, ptr %34, align 8, !tbaa !9
  %75 = mul i64 %73, %74
  %76 = getelementptr inbounds nuw i32, ptr %72, i64 %75
  store ptr %76, ptr %27, align 8, !tbaa !11
  call void @llvm.lifetime.start.p0(i64 24, ptr %28) #7
  %77 = load ptr, ptr %26, align 8, !tbaa !21
  %78 = load i64, ptr %32, align 8, !tbaa !9
  invoke void @_ZN5faiss15BitstringReaderC2EPKhm(ptr noundef nonnull align 8 dereferenceable(24) %28, ptr noundef %77, i64 noundef %78)
          to label %79 unwind label %111

79:                                               ; preds = %63
  call void @llvm.lifetime.start.p0(i64 4, ptr %29) #7
  store i32 0, ptr %29, align 4, !tbaa !13
  br label %80

80:                                               ; preds = %98, %79
  %81 = load i32, ptr %29, align 4, !tbaa !13
  %82 = sext i32 %81 to i64
  %83 = load i64, ptr %34, align 8, !tbaa !9
  %84 = icmp ult i64 %82, %83
  br i1 %84, label %86, label %85

85:                                               ; preds = %80
  call void @llvm.lifetime.end.p0(i64 4, ptr %29) #7
  br label %101

86:                                               ; preds = %80
  %87 = load ptr, ptr %35, align 8, !tbaa !11
  %88 = load i32, ptr %29, align 4, !tbaa !13
  %89 = sext i32 %88 to i64
  %90 = getelementptr inbounds i32, ptr %87, i64 %89
  %91 = load i32, ptr %90, align 4, !tbaa !13
  %92 = call noundef i64 @_ZN5faiss15BitstringReader4readEi(ptr noundef nonnull align 8 dereferenceable(24) %28, i32 noundef %91)
  %93 = trunc i64 %92 to i32
  %94 = load ptr, ptr %27, align 8, !tbaa !11
  %95 = load i32, ptr %29, align 4, !tbaa !13
  %96 = sext i32 %95 to i64
  %97 = getelementptr inbounds i32, ptr %94, i64 %96
  store i32 %93, ptr %97, align 4, !tbaa !13
  br label %98

98:                                               ; preds = %86
  %99 = load i32, ptr %29, align 4, !tbaa !13
  %100 = add nsw i32 %99, 1
  store i32 %100, ptr %29, align 4, !tbaa !13
  br label %80, !llvm.loop !941

101:                                              ; preds = %85
  call void @llvm.lifetime.end.p0(i64 24, ptr %28) #7
  call void @llvm.lifetime.end.p0(i64 8, ptr %27) #7
  call void @llvm.lifetime.end.p0(i64 8, ptr %26) #7
  br label %102

102:                                              ; preds = %101
  br label %103

103:                                              ; preds = %102
  %104 = load i64, ptr %17, align 8, !tbaa !9
  %105 = add i64 %104, 1
  store i64 %105, ptr %17, align 8, !tbaa !9
  br label %57

106:                                              ; preds = %62
  br label %107

107:                                              ; preds = %106
  %108 = load ptr, ptr %9, align 8
  %109 = load i32, ptr %108, align 4, !tbaa !13
  call void @__kmpc_for_static_fini(ptr @1, i32 %109)
  call void @llvm.lifetime.end.p0(i64 8, ptr %25) #7
  call void @llvm.lifetime.end.p0(i64 4, ptr %24) #7
  call void @llvm.lifetime.end.p0(i64 8, ptr %23) #7
  call void @llvm.lifetime.end.p0(i64 8, ptr %22) #7
  call void @llvm.lifetime.end.p0(i64 8, ptr %21) #7
  br label %110

110:                                              ; preds = %107, %8
  call void @llvm.lifetime.end.p0(i64 8, ptr %19) #7
  call void @llvm.lifetime.end.p0(i64 8, ptr %18) #7
  call void @llvm.lifetime.end.p0(i64 8, ptr %17) #7
  ret void

111:                                              ; preds = %63
  %112 = landingpad { ptr, i32 }
          catch ptr null
  %113 = extractvalue { ptr, i32 } %112, 0
  call void @__clang_call_terminate(ptr %113) #20
  unreachable
}