; Function Attrs: noinline norecurse nounwind uwtable
define internal void @_ZN5faiss17unpack_bitstringsEmmPKiPKhmPi.omp_outlined(ptr noalias noundef readonly captures(none) %0, ptr noalias readnone captures(none) %1, ptr noundef nonnull readonly align 8 captures(none) dereferenceable(8) %2, ptr noundef nonnull readonly align 8 captures(none) dereferenceable(8) %3, ptr noundef nonnull readonly align 8 captures(none) dereferenceable(8) %4, ptr noundef nonnull readonly align 8 captures(none) dereferenceable(8) %5, ptr noundef nonnull readonly align 8 captures(none) dereferenceable(8) %6, ptr noundef nonnull readonly align 8 captures(none) dereferenceable(8) %7) #4 personality ptr @__gxx_personality_v0 {
  %9 = alloca i64, align 8
  %10 = alloca i64, align 8
  %11 = alloca i64, align 8
  %12 = alloca i32, align 4
  %13 = load i64, ptr %2, align 8, !tbaa !4
  %.not = icmp eq i64 %13, 0
  br i1 %.not, label %70, label %14

14:                                               ; preds = %8
  %15 = add i64 %13, -1
  call void @llvm.lifetime.start.p0(i64 8, ptr nonnull %9) #5
  store i64 0, ptr %9, align 8, !tbaa !4
  call void @llvm.lifetime.start.p0(i64 8, ptr nonnull %10) #5
  store i64 %15, ptr %10, align 8, !tbaa !4
  call void @llvm.lifetime.start.p0(i64 8, ptr nonnull %11) #5
  store i64 1, ptr %11, align 8, !tbaa !4
  call void @llvm.lifetime.start.p0(i64 4, ptr nonnull %12) #5
  store i32 0, ptr %12, align 4, !tbaa !10
  %16 = load i32, ptr %0, align 4, !tbaa !10
  call void @__kmpc_for_static_init_8u(ptr nonnull @1, i32 %16, i32 34, ptr nonnull %12, ptr nonnull %9, ptr nonnull %10, ptr nonnull %11, i64 1, i64 1)
  %17 = load i64, ptr %10, align 8, !tbaa !4
  %18 = call i64 @llvm.umin.i64(i64 %17, i64 %15)
  store i64 %18, ptr %10, align 8, !tbaa !4
  %19 = load i64, ptr %9, align 8, !tbaa !4
  %.not38 = icmp ugt i64 %19, %18
  br i1 %.not38, label %._crit_edge31, label %.lr.ph30

.lr.ph30:                                         ; preds = %14
  %20 = load ptr, ptr %3, align 8, !tbaa !22
  %21 = load i64, ptr %4, align 8, !tbaa !4
  %22 = load ptr, ptr %5, align 8, !tbaa !36
  %23 = load i64, ptr %6, align 8, !tbaa !4
  %.not32 = icmp eq i64 %23, 0
  %24 = load ptr, ptr %7, align 8
  br i1 %.not32, label %._crit_edge31, label %.lr.ph.us

.lr.ph.us:                                        ; preds = %.lr.ph30, %._crit_edge.us
  %.02328.us = phi i64 [ %69, %._crit_edge.us ], [ %19, %.lr.ph30 ]
  %25 = mul i64 %21, %.02328.us
  %26 = getelementptr inbounds nuw i8, ptr %20, i64 %25
  %27 = mul i64 %23, %.02328.us
  %28 = getelementptr inbounds nuw i32, ptr %22, i64 %27
  br label %29

29:                                               ; preds = %.lr.ph.us, %_ZN5faiss15BitstringReader4readEi.exit.us
  %indvars.iv = phi i64 [ 0, %.lr.ph.us ], [ %indvars.iv.next, %_ZN5faiss15BitstringReader4readEi.exit.us ]
  %.sroa.5.026.us = phi i64 [ 0, %.lr.ph.us ], [ %.sroa.5.1.us, %_ZN5faiss15BitstringReader4readEi.exit.us ]
  %30 = getelementptr inbounds nuw i32, ptr %24, i64 %indvars.iv
  %31 = load i32, ptr %30, align 4, !tbaa !10
  %32 = trunc i64 %.sroa.5.026.us to i32
  %33 = and i32 %32, 7
  %34 = sub nuw nsw i32 8, %33
  %35 = lshr i64 %.sroa.5.026.us, 3
  %36 = getelementptr inbounds nuw i8, ptr %26, i64 %35
  %37 = load i8, ptr %36, align 1, !tbaa !14
  %38 = zext i8 %37 to i32
  %39 = lshr i32 %38, %33
  %.not.i.us = icmp sgt i32 %31, %34
  br i1 %.not.i.us, label %44, label %40

40:                                               ; preds = %29
  %notmask30.i.us = shl nsw i32 -1, %31
  %41 = xor i32 %notmask30.i.us, -1
  %42 = and i32 %39, %41
  %43 = sext i32 %31 to i64
  br label %_ZN5faiss15BitstringReader4readEi.exit.us

44:                                               ; preds = %29
  %45 = zext nneg i32 %39 to i64
  %46 = zext nneg i32 %31 to i64
  %47 = sub nsw i32 %31, %34
  %.02431.i.us = add nuw nsw i64 %35, 1
  %48 = icmp sgt i32 %47, 8
  br i1 %48, label %.lr.ph.preheader.i.us, label %._crit_edge.i.us

.lr.ph.preheader.i.us:                            ; preds = %44
  %49 = zext nneg i32 %34 to i64
  br label %.lr.ph.i.us

.lr.ph.i.us:                                      ; preds = %.lr.ph.i.us, %.lr.ph.preheader.i.us
  %indvars.iv.i.us = phi i64 [ %49, %.lr.ph.preheader.i.us ], [ %indvars.iv.next.i.us, %.lr.ph.i.us ]
  %.02435.i.us = phi i64 [ %.02431.i.us, %.lr.ph.preheader.i.us ], [ %.024.i.us, %.lr.ph.i.us ]
  %.02633.i.us = phi i64 [ %45, %.lr.ph.preheader.i.us ], [ %54, %.lr.ph.i.us ]
  %.02732.i.us = phi i32 [ %47, %.lr.ph.preheader.i.us ], [ %55, %.lr.ph.i.us ]
  %50 = getelementptr inbounds nuw i8, ptr %26, i64 %.02435.i.us
  %51 = load i8, ptr %50, align 1, !tbaa !14
  %52 = zext i8 %51 to i64
  %53 = shl i64 %52, %indvars.iv.i.us
  %54 = or i64 %53, %.02633.i.us
  %indvars.iv.next.i.us = add nuw nsw i64 %indvars.iv.i.us, 8
  %55 = add nsw i32 %.02732.i.us, -8
  %.024.i.us = add nuw nsw i64 %.02435.i.us, 1
  %56 = icmp samesign ugt i32 %.02732.i.us, 16
  br i1 %56, label %.lr.ph.i.us, label %._crit_edge.loopexit.i.us, !llvm.loop !997

._crit_edge.loopexit.i.us:                        ; preds = %.lr.ph.i.us
  %57 = trunc nuw i64 %indvars.iv.next.i.us to i32
  br label %._crit_edge.i.us

._crit_edge.i.us:                                 ; preds = %._crit_edge.loopexit.i.us, %44
  %.027.lcssa.i.us = phi i32 [ %47, %44 ], [ %55, %._crit_edge.loopexit.i.us ]
  %.026.lcssa.i.us = phi i64 [ %45, %44 ], [ %54, %._crit_edge.loopexit.i.us ]
  %.025.lcssa.i.us = phi i32 [ %34, %44 ], [ %57, %._crit_edge.loopexit.i.us ]
  %.024.lcssa.i.us = phi i64 [ %.02431.i.us, %44 ], [ %.024.i.us, %._crit_edge.loopexit.i.us ]
  %58 = getelementptr inbounds nuw i8, ptr %26, i64 %.024.lcssa.i.us
  %59 = load i8, ptr %58, align 1, !tbaa !14
  %notmask.i.us = shl nsw i32 -1, %.027.lcssa.i.us
  %60 = xor i32 %notmask.i.us, -1
  %61 = zext i8 %59 to i32
  %62 = and i32 %61, %60
  %63 = zext nneg i32 %62 to i64
  %64 = zext nneg i32 %.025.lcssa.i.us to i64
  %65 = shl i64 %63, %64
  %66 = or i64 %65, %.026.lcssa.i.us
  %67 = trunc i64 %66 to i32
  br label %_ZN5faiss15BitstringReader4readEi.exit.us

_ZN5faiss15BitstringReader4readEi.exit.us:        ; preds = %._crit_edge.i.us, %40
  %.pn.us = phi i64 [ %46, %._crit_edge.i.us ], [ %43, %40 ]
  %.0.i.us = phi i32 [ %67, %._crit_edge.i.us ], [ %42, %40 ]
  %.sroa.5.1.us = add i64 %.pn.us, %.sroa.5.026.us
  %68 = getelementptr inbounds nuw i32, ptr %28, i64 %indvars.iv
  store i32 %.0.i.us, ptr %68, align 4, !tbaa !10
  %indvars.iv.next = add nuw nsw i64 %indvars.iv, 1
  %exitcond.not = icmp eq i64 %indvars.iv.next, %23
  br i1 %exitcond.not, label %._crit_edge.us, label %29, !llvm.loop !1000

._crit_edge.us:                                   ; preds = %_ZN5faiss15BitstringReader4readEi.exit.us
  %69 = add nuw i64 %.02328.us, 1
  %exitcond36.not = icmp eq i64 %.02328.us, %18
  br i1 %exitcond36.not, label %._crit_edge31, label %.lr.ph.us

._crit_edge31:                                    ; preds = %._crit_edge.us, %.lr.ph30, %14
  call void @__kmpc_for_static_fini(ptr nonnull @1, i32 %16)
  call void @llvm.lifetime.end.p0(i64 4, ptr nonnull %12) #5
  call void @llvm.lifetime.end.p0(i64 8, ptr nonnull %11) #5
  call void @llvm.lifetime.end.p0(i64 8, ptr nonnull %10) #5
  call void @llvm.lifetime.end.p0(i64 8, ptr nonnull %9) #5
  br label %70

70:                                               ; preds = %._crit_edge31, %8
  ret void
}